; Function Attrs: mustprogress uwtable
define noundef nonnull ptr @_ZN7rocksdb19NewFileChecksumListEv() local_unnamed_addr #2 personality ptr @__gxx_personality_v0 {
  %1 = tail call noalias noundef nonnull dereferenceable(64) ptr @_Znwm(i64 noundef 64) #27
  store ptr getelementptr inbounds nuw inrange(-16, 64) (i8, ptr @_ZTVN7rocksdb20FileChecksumListImplE, i64 16), ptr %1, align 8, !tbaa !84
  %2 = getelementptr inbounds nuw i8, ptr %1, i64 8
  %3 = getelementptr inbounds nuw i8, ptr %1, i64 56
  store ptr %3, ptr %2, align 8, !tbaa !25
  %4 = getelementptr inbounds nuw i8, ptr %1, i64 16
  store i64 1, ptr %4, align 8, !tbaa !26
  %5 = getelementptr inbounds nuw i8, ptr %1, i64 24
  %6 = getelementptr inbounds nuw i8, ptr %1, i64 40
  tail call void @llvm.memset.p0.i64(ptr noundef nonnull align 8 dereferenceable(16) %5, i8 0, i64 16, i1 false)
  store float 1.000000e+00, ptr %6, align 8, !tbaa !86
  %7 = getelementptr inbounds nuw i8, ptr %1, i64 48
  tail call void @llvm.memset.p0.i64(ptr noundef nonnull align 8 dereferenceable(16) %7, i8 0, i64 16, i1 false)
  ret ptr %1
}